target datalayout = "e-m:e-p270:32:32-p271:32:32-p272:64:64-i64:64-i128:128-f80:128-n8:16:32:64-S128"
target triple = "x86_64-pc-linux-gnu"

%struct.pointf_s = type { double, double }
%struct.Agobj_s = type { %struct.Agtag_s, ptr }
%struct.Agtag_s = type { i32, i64 }
%struct.Agnodeinfo_t = type { %struct.Agrec_s, ptr, ptr, %struct.pointf_s, double, double, %struct.boxf, double, double, double, double, double, ptr, ptr, ptr, i8, i8, i8, i8, i32, i32, i32, ptr, double, i8, i8, ptr, ptr, i8, i64, i8, i8, i8, ptr, ptr, %struct.elist, %struct.elist, %struct.elist, %struct.elist, %struct.elist, ptr, i32, ptr, i32, i32, double, %struct.elist, %struct.elist, %struct.elist, %struct.elist, ptr, i32, i32, i32, [1 x double] }
%struct.Agrec_s = type { ptr, ptr }
%struct.boxf = type { %struct.pointf_s, %struct.pointf_s }
%struct.elist = type { ptr, i64 }
%struct.field_t = type { %struct.pointf_s, %struct.boxf, i32, ptr, ptr, ptr, i8, i8 }
%struct.port = type { %struct.pointf_s, double, ptr, i8, i8, i8, i8, i8, i8, ptr }

@.str.83 = private unnamed_addr constant [2 x i8] c"_\00", align 1
@.str.84 = private unnamed_addr constant [61 x i8] c"node %s, port %s, unrecognized compass point '%s' - ignored\0A\00", align 1
@Center = internal global { %struct.pointf_s, double, ptr, i8, i8, i8, i8, i8, i8, [2 x i8], ptr } { %struct.pointf_s zeroinitializer, double -1.000000e+00, ptr null, i8 0, i8 0, i8 1, i8 0, i8 0, i8 0, [2 x i8] zeroinitializer, ptr null }, align 8
@.str.86 = private unnamed_addr constant [31 x i8] c"node %s, port %s unrecognized\0A\00", align 1

; Function Attrs: nounwind uwtable
define internal void @unrecognized(ptr noundef %0, ptr noundef %1) #0 {
  %3 = alloca ptr, align 8
  %4 = alloca ptr, align 8
  store ptr %0, ptr %3, align 8, !tbaa !35
  store ptr %1, ptr %4, align 8, !tbaa !75
  %5 = load ptr, ptr %3, align 8, !tbaa !35
  %6 = call ptr @agnameof(ptr noundef %5)
  %7 = load ptr, ptr %4, align 8, !tbaa !75
  call void (ptr, ...) @agwarningf(ptr noundef @.str.86, ptr noundef %6, ptr noundef %7)
  ret void
}

; Function Attrs: nounwind uwtable
define internal void @record_port(ptr dead_on_unwind noalias writable sret(%struct.port) align 8 %0, ptr noundef %1, ptr noundef %2, ptr noundef %3) #0 {
  %5 = alloca ptr, align 8
  %6 = alloca ptr, align 8
  %7 = alloca ptr, align 8
  %8 = alloca ptr, align 8
  %9 = alloca ptr, align 8
  %10 = alloca %struct.port, align 8
  %11 = alloca i8, align 1
  %12 = alloca i32, align 4
  store ptr %1, ptr %5, align 8, !tbaa !35
  store ptr %2, ptr %6, align 8, !tbaa !75
  store ptr %3, ptr %7, align 8, !tbaa !75
  call void @llvm.lifetime.start.p0(i64 8, ptr %8) #13
  call void @llvm.lifetime.start.p0(i64 8, ptr %9) #13
  call void @llvm.lifetime.start.p0(i64 48, ptr %10) #13
  call void @llvm.lifetime.start.p0(i64 1, ptr %11) #13
  %13 = load ptr, ptr %6, align 8, !tbaa !75
  %14 = getelementptr inbounds i8, ptr %13, i64 0
  %15 = load i8, ptr %14, align 1, !tbaa !98
  %16 = sext i8 %15 to i32
  %17 = icmp eq i32 %16, 0
  br i1 %17, label %18, label %19

18:                                               ; preds = %4
  call void @llvm.memcpy.p0.p0.i64(ptr align 8 %0, ptr align 8 @Center, i64 48, i1 false), !tbaa.struct !172
  store i32 1, ptr %12, align 4
  br label %62

19:                                               ; preds = %4
  store i8 15, ptr %11, align 1, !tbaa !98
  %20 = load ptr, ptr %7, align 8, !tbaa !75
  %21 = icmp eq ptr %20, null
  br i1 %21, label %22, label %23

22:                                               ; preds = %19
  store ptr @.str.83, ptr %7, align 8, !tbaa !75
  br label %23

23:                                               ; preds = %22, %19
  %24 = load ptr, ptr %5, align 8, !tbaa !35
  %25 = getelementptr inbounds nuw %struct.Agobj_s, ptr %24, i32 0, i32 1
  %26 = load ptr, ptr %25, align 8, !tbaa !37
  %27 = getelementptr inbounds nuw %struct.Agnodeinfo_t, ptr %26, i32 0, i32 2
  %28 = load ptr, ptr %27, align 8, !tbaa !117
  store ptr %28, ptr %8, align 8, !tbaa !120
  %29 = load ptr, ptr %8, align 8, !tbaa !120
  %30 = load ptr, ptr %6, align 8, !tbaa !75
  %31 = call ptr @map_rec_port(ptr noundef %29, ptr noundef %30)
  store ptr %31, ptr %9, align 8, !tbaa !120
  %32 = icmp ne ptr %31, null
  br i1 %32, label %33, label %49

33:                                               ; preds = %23
  %34 = load ptr, ptr %5, align 8, !tbaa !35
  %35 = load ptr, ptr %9, align 8, !tbaa !120
  %36 = getelementptr inbounds nuw %struct.field_t, ptr %35, i32 0, i32 1
  %37 = load ptr, ptr %7, align 8, !tbaa !75
  %38 = load ptr, ptr %9, align 8, !tbaa !120
  %39 = getelementptr inbounds nuw %struct.field_t, ptr %38, i32 0, i32 7
  %40 = load i8, ptr %39, align 1, !tbaa !189
  %41 = call i32 @compassPort(ptr noundef %34, ptr noundef %36, ptr noundef %10, ptr noundef %37, i8 noundef zeroext %40, ptr noundef null)
  %42 = icmp ne i32 %41, 0
  br i1 %42, label %43, label %48

43:                                               ; preds = %33
  %44 = load ptr, ptr %5, align 8, !tbaa !35
  %45 = call ptr @agnameof(ptr noundef %44)
  %46 = load ptr, ptr %6, align 8, !tbaa !75
  %47 = load ptr, ptr %7, align 8, !tbaa !75
  call void (ptr, ...) @agwarningf(ptr noundef @.str.84, ptr noundef %45, ptr noundef %46, ptr noundef %47)
  br label %48

48:                                               ; preds = %43, %33
  br label %61

49:                                               ; preds = %23
  %50 = load ptr, ptr %5, align 8, !tbaa !35
  %51 = load ptr, ptr %8, align 8, !tbaa !120
  %52 = getelementptr inbounds nuw %struct.field_t, ptr %51, i32 0, i32 1
  %53 = load ptr, ptr %6, align 8, !tbaa !75
  %54 = load i8, ptr %11, align 1, !tbaa !98
  %55 = call i32 @compassPort(ptr noundef %50, ptr noundef %52, ptr noundef %10, ptr noundef %53, i8 noundef zeroext %54, ptr noundef null)
  %56 = icmp ne i32 %55, 0
  br i1 %56, label %57, label %60

57:                                               ; preds = %49
  %58 = load ptr, ptr %5, align 8, !tbaa !35
  %59 = load ptr, ptr %6, align 8, !tbaa !75
  call void @unrecognized(ptr noundef %58, ptr noundef %59)
  br label %60

60:                                               ; preds = %57, %49
  br label %61

61:                                               ; preds = %60, %48
  call void @llvm.memcpy.p0.p0.i64(ptr align 8 %0, ptr align 8 %10, i64 48, i1 false), !tbaa.struct !172
  store i32 1, ptr %12, align 4
  br label %62

62:                                               ; preds = %61, %18
  call void @llvm.lifetime.end.p0(i64 1, ptr %11) #13
  call void @llvm.lifetime.end.p0(i64 48, ptr %10) #13
  call void @llvm.lifetime.end.p0(i64 8, ptr %9) #13
  call void @llvm.lifetime.end.p0(i64 8, ptr %8) #13
  ret void
}