; Function Attrs: nounwind uwtable
define internal void @record_port(ptr dead_on_unwind noalias writable writeonly sret(%struct.port) align 8 captures(none) initializes((0, 48)) %0, ptr noundef %1, ptr noundef %2, ptr noundef %3) #0 {
  %5 = alloca %struct.port, align 8
  call void @llvm.lifetime.start.p0(i64 48, ptr nonnull %5) #26
  %6 = load i8, ptr %2, align 1, !tbaa !81
  %7 = icmp eq i8 %6, 0
  br i1 %7, label %8, label %9

8:                                                ; preds = %4
  tail call void @llvm.memcpy.p0.p0.i64(ptr noundef nonnull align 8 dereferenceable(48) %0, ptr noundef nonnull align 8 dereferenceable(48) @Center, i64 48, i1 false), !tbaa.struct !148
  br label %29

9:                                                ; preds = %4
  %10 = icmp eq ptr %3, null
  %spec.store.select = select i1 %10, ptr @.str.83, ptr %3
  %11 = getelementptr inbounds nuw i8, ptr %1, i64 16
  %12 = load ptr, ptr %11, align 8, !tbaa !21
  %13 = getelementptr inbounds nuw i8, ptr %12, i64 24
  %14 = load ptr, ptr %13, align 8, !tbaa !100
  %15 = tail call fastcc ptr @map_rec_port(ptr noundef %14, ptr noundef nonnull %2)
  %.not = icmp eq ptr %15, null
  br i1 %.not, label %23, label %16

16:                                               ; preds = %9
  %17 = getelementptr inbounds nuw i8, ptr %15, i64 16
  %18 = getelementptr inbounds nuw i8, ptr %15, i64 81
  %19 = load i8, ptr %18, align 1, !tbaa !167
  %20 = call fastcc i32 @compassPort(ptr noundef nonnull %1, ptr noundef nonnull %17, ptr noundef nonnull %5, ptr noundef nonnull %spec.store.select, i8 noundef zeroext %19, ptr noundef null)
  %.not18 = icmp eq i32 %20, 0
  br i1 %.not18, label %28, label %21

21:                                               ; preds = %16
  %22 = tail call ptr @agnameof(ptr noundef nonnull %1) #26
  tail call void (ptr, ...) @agwarningf(ptr noundef nonnull @.str.84, ptr noundef %22, ptr noundef nonnull %2, ptr noundef nonnull %spec.store.select) #26
  br label %28

23:                                               ; preds = %9
  %24 = getelementptr inbounds nuw i8, ptr %14, i64 16
  %25 = call fastcc i32 @compassPort(ptr noundef nonnull %1, ptr noundef nonnull %24, ptr noundef nonnull %5, ptr noundef nonnull %2, i8 noundef zeroext 15, ptr noundef null)
  %.not17 = icmp eq i32 %25, 0
  br i1 %.not17, label %28, label %26

26:                                               ; preds = %23
  %27 = tail call ptr @agnameof(ptr noundef nonnull %1) #26
  tail call void (ptr, ...) @agwarningf(ptr noundef nonnull @.str.86, ptr noundef %27, ptr noundef nonnull %2) #26
  br label %28

28:                                               ; preds = %23, %26, %16, %21
  call void @llvm.memcpy.p0.p0.i64(ptr noundef nonnull align 8 dereferenceable(48) %0, ptr noundef nonnull align 8 dereferenceable(48) %5, i64 48, i1 false), !tbaa.struct !148
  br label %29

29:                                               ; preds = %28, %8
  call void @llvm.lifetime.end.p0(i64 48, ptr nonnull %5) #26
  ret void
}